target datalayout = "e-m:e-p270:32:32-p271:32:32-p272:64:64-i64:64-i128:128-f80:128-n8:16:32:64-S128"
target triple = "x86_64-pc-linux-gnu"

%"struct.std::__1::__no_destroy" = type { [312 x i8] }
%"struct.std::__1::__no_destroy.60" = type { [8 x i8] }
%"class.std::__1::locale" = type { ptr }
%"class.std::__1::__shared_count" = type { ptr, i64 }

@_ZNSt3__16locale5__imp19classic_locale_imp_E = hidden global %"struct.std::__1::__no_destroy" zeroinitializer, align 8
@_ZZNSt3__16locale8__globalEvE1g = internal global %"struct.std::__1::__no_destroy.60" zeroinitializer, align 8
@_ZGVZNSt3__16locale8__globalEvE1g = internal global i64 0, align 8
@_ZNSt3__16localeC1ERKS0_ = dso_local unnamed_addr alias void (ptr, ptr), ptr @_ZNSt3__16localeC2ERKS0_

; Function Attrs: inlinehint mustprogress nounwind uwtable
define linkonce_odr hidden noundef i64 @_ZNSt3__134__libcpp_atomic_refcount_incrementB8ne210000IlEET_RS1_(ptr noundef nonnull align 8 dereferenceable(8) %0) #4 comdat {
  %2 = alloca ptr, align 8
  %3 = alloca i64, align 8
  %4 = alloca i64, align 8
  store ptr %0, ptr %2, align 8, !tbaa !63
  %5 = load ptr, ptr %2, align 8, !tbaa !63
  store i64 1, ptr %3, align 8, !tbaa !16
  %6 = load i64, ptr %3, align 8
  %7 = atomicrmw add ptr %5, i64 %6 monotonic, align 8
  %8 = add i64 %7, %6
  store i64 %8, ptr %4, align 8
  %9 = load i64, ptr %4, align 8, !tbaa !16
  ret i64 %9
}

; Function Attrs: mustprogress nounwind uwtable
define linkonce_odr hidden void @_ZNSt3__114__shared_count12__add_sharedB8ne210000Ev(ptr noundef nonnull align 8 dereferenceable(16) %0) #0 comdat align 2 {
  %2 = alloca ptr, align 8
  store ptr %0, ptr %2, align 8, !tbaa !390
  %3 = load ptr, ptr %2, align 8
  %4 = getelementptr inbounds nuw %"class.std::__1::__shared_count", ptr %3, i32 0, i32 1
  %5 = call noundef i64 @_ZNSt3__134__libcpp_atomic_refcount_incrementB8ne210000IlEET_RS1_(ptr noundef nonnull align 8 dereferenceable(8) %4) #13
  ret void
}

; Function Attrs: mustprogress nounwind uwtable
define linkonce_odr hidden noundef nonnull align 8 dereferenceable(312) ptr @_ZNSt3__112__no_destroyINS_6locale5__impEE5__getB8ne210000Ev(ptr noundef nonnull align 8 dereferenceable(312) %0) #0 comdat align 2 {
  %2 = alloca ptr, align 8
  store ptr %0, ptr %2, align 8, !tbaa !433
  %3 = load ptr, ptr %2, align 8
  %4 = getelementptr inbounds nuw %"struct.std::__1::__no_destroy", ptr %3, i32 0, i32 0
  %5 = getelementptr inbounds [312 x i8], ptr %4, i64 0, i64 0
  ret ptr %5
}

; Function Attrs: mustprogress nounwind uwtable
define linkonce_odr hidden noundef nonnull align 8 dereferenceable(8) ptr @_ZNSt3__112__no_destroyINS_6localeEE5__getB8ne210000Ev(ptr noundef nonnull align 8 dereferenceable(8) %0) #0 comdat align 2 {
  %2 = alloca ptr, align 8
  store ptr %0, ptr %2, align 8, !tbaa !427
  %3 = load ptr, ptr %2, align 8
  %4 = getelementptr inbounds nuw %"struct.std::__1::__no_destroy.60", ptr %3, i32 0, i32 0
  %5 = getelementptr inbounds [8 x i8], ptr %4, i64 0, i64 0
  ret ptr %5
}

; Function Attrs: mustprogress nounwind uwtable
define linkonce_odr hidden void @_ZNSt3__112__no_destroyINS_6localeEEC2B8ne210000IJRKS1_EEEDpOT_(ptr noundef nonnull align 8 dereferenceable(8) %0, ptr noundef nonnull align 8 dereferenceable(8) %1) unnamed_addr #0 comdat align 2 {
  %3 = alloca ptr, align 8
  %4 = alloca ptr, align 8
  store ptr %0, ptr %3, align 8, !tbaa !427
  store ptr %1, ptr %4, align 8, !tbaa !51
  %5 = load ptr, ptr %3, align 8
  %6 = getelementptr inbounds nuw %"struct.std::__1::__no_destroy.60", ptr %5, i32 0, i32 0
  %7 = getelementptr inbounds [8 x i8], ptr %6, i64 0, i64 0
  %8 = load ptr, ptr %4, align 8, !tbaa !51
  call void @_ZNSt3__16localeC1ERKS0_(ptr noundef nonnull align 8 dereferenceable(8) %7, ptr noundef nonnull align 8 dereferenceable(8) %8) #13
  ret void
}

; Function Attrs: mustprogress uwtable
define hidden void @_ZNSt3__16locale5__imp7acquireEv(ptr noundef nonnull align 8 dereferenceable(312) %0) #2 align 2 {
  %2 = alloca ptr, align 8
  store ptr %0, ptr %2, align 8, !tbaa !361
  %3 = load ptr, ptr %2, align 8
  %4 = call noundef nonnull align 8 dereferenceable(312) ptr @_ZNSt3__112__no_destroyINS_6locale5__impEE5__getB8ne210000Ev(ptr noundef nonnull align 8 dereferenceable(312) @_ZNSt3__16locale5__imp19classic_locale_imp_E)
  %5 = icmp ne ptr %3, %4
  br i1 %5, label %6, label %7

6:                                                ; preds = %1
  call void @_ZNSt3__114__shared_count12__add_sharedB8ne210000Ev(ptr noundef nonnull align 8 dereferenceable(16) %3) #13
  br label %7

7:                                                ; preds = %6, %1
  ret void
}

; Function Attrs: mustprogress uwtable
define dso_local noundef nonnull align 8 dereferenceable(8) ptr @_ZNSt3__16locale8__globalEv() #2 align 2 personality ptr @__gxx_personality_v0 {
  %1 = alloca ptr, align 8
  %2 = alloca i32, align 4
  %3 = load atomic i8, ptr @_ZGVZNSt3__16locale8__globalEvE1g acquire, align 8
  %4 = icmp eq i8 %3, 0
  br i1 %4, label %5, label %12, !prof !104

5:                                                ; preds = %0
  %6 = call i32 @__cxa_guard_acquire(ptr @_ZGVZNSt3__16locale8__globalEvE1g) #13
  %7 = icmp ne i32 %6, 0
  br i1 %7, label %8, label %12

8:                                                ; preds = %5
  %9 = invoke noundef nonnull align 8 dereferenceable(8) ptr @_ZNSt3__16locale7classicEv()
          to label %10 unwind label %14

10:                                               ; preds = %8
  invoke void @_ZNSt3__112__no_destroyINS_6localeEEC2B8ne210000IJRKS1_EEEDpOT_(ptr noundef nonnull align 8 dereferenceable(8) @_ZZNSt3__16locale8__globalEvE1g, ptr noundef nonnull align 8 dereferenceable(8) %9)
          to label %11 unwind label %14

11:                                               ; preds = %10
  call void @__cxa_guard_release(ptr @_ZGVZNSt3__16locale8__globalEvE1g) #13
  br label %12

12:                                               ; preds = %11, %5, %0
  %13 = call noundef nonnull align 8 dereferenceable(8) ptr @_ZNSt3__112__no_destroyINS_6localeEE5__getB8ne210000Ev(ptr noundef nonnull align 8 dereferenceable(8) @_ZZNSt3__16locale8__globalEvE1g)
  ret ptr %13

14:                                               ; preds = %10, %8
  %15 = landingpad { ptr, i32 }
          cleanup
  %16 = extractvalue { ptr, i32 } %15, 0
  store ptr %16, ptr %1, align 8
  %17 = extractvalue { ptr, i32 } %15, 1
  store i32 %17, ptr %2, align 4
  call void @__cxa_guard_abort(ptr @_ZGVZNSt3__16locale8__globalEvE1g) #13
  br label %18

18:                                               ; preds = %14
  %19 = load ptr, ptr %1, align 8
  %20 = load i32, ptr %2, align 4
  %21 = insertvalue { ptr, i32 } poison, ptr %19, 0
  %22 = insertvalue { ptr, i32 } %21, i32 %20, 1
  resume { ptr, i32 } %22
}

; Function Attrs: mustprogress nounwind uwtable
define dso_local void @_ZNSt3__16localeC2Ev(ptr noundef nonnull align 8 dereferenceable(8) %0) unnamed_addr #0 align 2 personality ptr @__gxx_personality_v0 {
  %2 = alloca ptr, align 8
  store ptr %0, ptr %2, align 8, !tbaa !51
  %3 = load ptr, ptr %2, align 8
  %4 = getelementptr inbounds nuw %"class.std::__1::locale", ptr %3, i32 0, i32 0
  %5 = invoke noundef nonnull align 8 dereferenceable(8) ptr @_ZNSt3__16locale8__globalEv()
          to label %6 unwind label %12

6:                                                ; preds = %1
  %7 = getelementptr inbounds nuw %"class.std::__1::locale", ptr %5, i32 0, i32 0
  %8 = load ptr, ptr %7, align 8, !tbaa !386
  store ptr %8, ptr %4, align 8, !tbaa !386
  %9 = getelementptr inbounds nuw %"class.std::__1::locale", ptr %3, i32 0, i32 0
  %10 = load ptr, ptr %9, align 8, !tbaa !386
  invoke void @_ZNSt3__16locale5__imp7acquireEv(ptr noundef nonnull align 8 dereferenceable(312) %10)
          to label %11 unwind label %12

11:                                               ; preds = %6
  ret void

12:                                               ; preds = %6, %1
  %13 = landingpad { ptr, i32 }
          catch ptr null
  %14 = extractvalue { ptr, i32 } %13, 0
  call void @__clang_call_terminate(ptr %14) #33
  unreachable
}