; Function Attrs: mustprogress nounwind uwtable
define dso_local void @_ZNSt3__16localeC2Ev(ptr noundef nonnull writeonly align 8 captures(none) dereferenceable(8) %0) unnamed_addr #0 align 2 personality ptr @__gxx_personality_v0 {
  %2 = load atomic i8, ptr @_ZGVZNSt3__16locale8__globalEvE1g acquire, align 8
  %3 = icmp eq i8 %2, 0
  br i1 %3, label %4, label %_ZNSt3__16locale8__globalEv.exit, !prof !81

4:                                                ; preds = %1
  %5 = tail call i32 @__cxa_guard_acquire(ptr nonnull @_ZGVZNSt3__16locale8__globalEvE1g) #45
  %.not.i = icmp eq i32 %5, 0
  br i1 %.not.i, label %_ZNSt3__16locale8__globalEv.exit, label %6

6:                                                ; preds = %4
  %7 = invoke noundef nonnull align 8 dereferenceable(8) ptr @_ZNSt3__16locale7classicEv()
          to label %8 unwind label %.body

8:                                                ; preds = %6
  %9 = load ptr, ptr %7, align 8, !tbaa !28
  store ptr %9, ptr @_ZZNSt3__16locale8__globalEvE1g, align 8, !tbaa !28
  %.not.i.i.i.i = icmp eq ptr %9, @_ZNSt3__16locale5__imp19classic_locale_imp_E
  br i1 %.not.i.i.i.i, label %_ZNSt3__112__no_destroyINS_6localeEEC2B8ne210000IJRKS1_EEEDpOT_.exit.i, label %10

10:                                               ; preds = %8
  %11 = getelementptr inbounds nuw i8, ptr %9, i64 8
  %12 = atomicrmw add ptr %11, i64 1 monotonic, align 8
  br label %_ZNSt3__112__no_destroyINS_6localeEEC2B8ne210000IJRKS1_EEEDpOT_.exit.i

_ZNSt3__112__no_destroyINS_6localeEEC2B8ne210000IJRKS1_EEEDpOT_.exit.i: ; preds = %10, %8
  tail call void @__cxa_guard_release(ptr nonnull @_ZGVZNSt3__16locale8__globalEvE1g) #45
  br label %_ZNSt3__16locale8__globalEv.exit

.body:                                            ; preds = %6
  %13 = landingpad { ptr, i32 }
          catch ptr null
  tail call void @__cxa_guard_abort(ptr nonnull @_ZGVZNSt3__16locale8__globalEvE1g) #45
  %14 = extractvalue { ptr, i32 } %13, 0
  tail call void @__clang_call_terminate(ptr %14) #51
  unreachable

_ZNSt3__16locale8__globalEv.exit:                 ; preds = %_ZNSt3__112__no_destroyINS_6localeEEC2B8ne210000IJRKS1_EEEDpOT_.exit.i, %4, %1
  %15 = load ptr, ptr @_ZZNSt3__16locale8__globalEvE1g, align 8, !tbaa !28
  store ptr %15, ptr %0, align 8, !tbaa !28
  %.not.i1 = icmp eq ptr %15, @_ZNSt3__16locale5__imp19classic_locale_imp_E
  br i1 %.not.i1, label %_ZNSt3__16locale5__imp7acquireEv.exit, label %16

16:                                               ; preds = %_ZNSt3__16locale8__globalEv.exit
  %17 = getelementptr inbounds nuw i8, ptr %15, i64 8
  %18 = atomicrmw add ptr %17, i64 1 monotonic, align 8
  br label %_ZNSt3__16locale5__imp7acquireEv.exit

_ZNSt3__16locale5__imp7acquireEv.exit:            ; preds = %16, %_ZNSt3__16locale8__globalEv.exit
  ret void
}